target datalayout = "e-m:e-p270:32:32-p271:32:32-p272:64:64-i64:64-i128:128-f80:128-n8:16:32:64-S128"
target triple = "x86_64-pc-linux-gnu"

%union.anon.9 = type { i32 }

; Function Attrs: mustprogress nounwind uwtable
define hidden noundef nofpclass(nan inf) float @_ZN4ncnn18float16_to_float32Et(i16 noundef zeroext %0) #8 {
  %2 = alloca i16, align 2
  %3 = alloca i16, align 2
  %4 = alloca i16, align 2
  %5 = alloca i16, align 2
  %6 = alloca %union.anon.9, align 4
  store i16 %0, ptr %2, align 2, !tbaa !54
  call void @llvm.lifetime.start.p0(i64 2, ptr %3) #9
  %7 = load i16, ptr %2, align 2, !tbaa !54
  %8 = zext i16 %7 to i32
  %9 = and i32 %8, 32768
  %10 = ashr i32 %9, 15
  %11 = trunc i32 %10 to i16
  store i16 %11, ptr %3, align 2, !tbaa !54
  call void @llvm.lifetime.start.p0(i64 2, ptr %4) #9
  %12 = load i16, ptr %2, align 2, !tbaa !54
  %13 = zext i16 %12 to i32
  %14 = and i32 %13, 31744
  %15 = ashr i32 %14, 10
  %16 = trunc i32 %15 to i16
  store i16 %16, ptr %4, align 2, !tbaa !54
  call void @llvm.lifetime.start.p0(i64 2, ptr %5) #9
  %17 = load i16, ptr %2, align 2, !tbaa !54
  %18 = zext i16 %17 to i32
  %19 = and i32 %18, 1023
  %20 = trunc i32 %19 to i16
  store i16 %20, ptr %5, align 2, !tbaa !54
  call void @llvm.lifetime.start.p0(i64 4, ptr %6) #9
  %21 = load i16, ptr %4, align 2, !tbaa !54
  %22 = zext i16 %21 to i32
  %23 = icmp eq i32 %22, 0
  br i1 %23, label %24, label %68

24:                                               ; preds = %1
  %25 = load i16, ptr %5, align 2, !tbaa !54
  %26 = zext i16 %25 to i32
  %27 = icmp eq i32 %26, 0
  br i1 %27, label %28, label %32

28:                                               ; preds = %24
  %29 = load i16, ptr %3, align 2, !tbaa !54
  %30 = zext i16 %29 to i32
  %31 = shl i32 %30, 31
  store i32 %31, ptr %6, align 4, !tbaa !53
  br label %67

32:                                               ; preds = %24
  store i16 0, ptr %4, align 2, !tbaa !54
  br label %33

33:                                               ; preds = %38, %32
  %34 = load i16, ptr %5, align 2, !tbaa !54
  %35 = zext i16 %34 to i32
  %36 = and i32 %35, 512
  %37 = icmp eq i32 %36, 0
  br i1 %37, label %38, label %45

38:                                               ; preds = %33
  %39 = load i16, ptr %5, align 2, !tbaa !54
  %40 = zext i16 %39 to i32
  %41 = shl i32 %40, 1
  %42 = trunc i32 %41 to i16
  store i16 %42, ptr %5, align 2, !tbaa !54
  %43 = load i16, ptr %4, align 2, !tbaa !54
  %44 = add i16 %43, 1
  store i16 %44, ptr %4, align 2, !tbaa !54
  br label %33, !llvm.loop !56

45:                                               ; preds = %33
  %46 = load i16, ptr %5, align 2, !tbaa !54
  %47 = zext i16 %46 to i32
  %48 = shl i32 %47, 1
  %49 = trunc i32 %48 to i16
  store i16 %49, ptr %5, align 2, !tbaa !54
  %50 = load i16, ptr %5, align 2, !tbaa !54
  %51 = zext i16 %50 to i32
  %52 = and i32 %51, 1023
  %53 = trunc i32 %52 to i16
  store i16 %53, ptr %5, align 2, !tbaa !54
  %54 = load i16, ptr %3, align 2, !tbaa !54
  %55 = zext i16 %54 to i32
  %56 = shl i32 %55, 31
  %57 = load i16, ptr %4, align 2, !tbaa !54
  %58 = zext i16 %57 to i32
  %59 = sub nsw i32 0, %58
  %60 = add nsw i32 %59, 112
  %61 = shl i32 %60, 23
  %62 = or i32 %56, %61
  %63 = load i16, ptr %5, align 2, !tbaa !54
  %64 = zext i16 %63 to i32
  %65 = shl i32 %64, 13
  %66 = or i32 %62, %65
  store i32 %66, ptr %6, align 4, !tbaa !53
  br label %67

67:                                               ; preds = %45, %28
  br label %95

68:                                               ; preds = %1
  %69 = load i16, ptr %4, align 2, !tbaa !54
  %70 = zext i16 %69 to i32
  %71 = icmp eq i32 %70, 31
  br i1 %71, label %72, label %81

72:                                               ; preds = %68
  %73 = load i16, ptr %3, align 2, !tbaa !54
  %74 = zext i16 %73 to i32
  %75 = shl i32 %74, 31
  %76 = or i32 %75, 2139095040
  %77 = load i16, ptr %5, align 2, !tbaa !54
  %78 = zext i16 %77 to i32
  %79 = shl i32 %78, 13
  %80 = or i32 %76, %79
  store i32 %80, ptr %6, align 4, !tbaa !53
  br label %94

81:                                               ; preds = %68
  %82 = load i16, ptr %3, align 2, !tbaa !54
  %83 = zext i16 %82 to i32
  %84 = shl i32 %83, 31
  %85 = load i16, ptr %4, align 2, !tbaa !54
  %86 = zext i16 %85 to i32
  %87 = add nsw i32 %86, 112
  %88 = shl i32 %87, 23
  %89 = or i32 %84, %88
  %90 = load i16, ptr %5, align 2, !tbaa !54
  %91 = zext i16 %90 to i32
  %92 = shl i32 %91, 13
  %93 = or i32 %89, %92
  store i32 %93, ptr %6, align 4, !tbaa !53
  br label %94

94:                                               ; preds = %81, %72
  br label %95

95:                                               ; preds = %94, %67
  %96 = load float, ptr %6, align 4, !tbaa !53
  call void @llvm.lifetime.end.p0(i64 4, ptr %6) #9
  call void @llvm.lifetime.end.p0(i64 2, ptr %5) #9
  call void @llvm.lifetime.end.p0(i64 2, ptr %4) #9
  call void @llvm.lifetime.end.p0(i64 2, ptr %3) #9
  ret float %96
}