; Function Attrs: mustprogress nofree norecurse nosync nounwind willreturn memory(none) uwtable
define hidden noundef nofpclass(nan inf) float @_ZN4ncnn18float16_to_float32Et(i16 noundef zeroext %0) local_unnamed_addr #9 {
  %2 = lshr i16 %0, 15
  %3 = lshr i16 %0, 10
  %4 = and i16 %3, 31
  %5 = and i16 %0, 1023
  switch i16 %4, label %35 [
    i16 0, label %6
    i16 31, label %28
  ]

6:                                                ; preds = %1
  %7 = icmp eq i16 %5, 0
  br i1 %7, label %10, label %.preheader

.preheader:                                       ; preds = %6
  %8 = and i16 %0, 512
  %9 = icmp eq i16 %8, 0
  br i1 %9, label %.lr.ph, label %._crit_edge

10:                                               ; preds = %6
  %11 = zext nneg i16 %2 to i32
  %12 = shl nuw i32 %11, 31
  br label %44

.lr.ph:                                           ; preds = %.preheader, %.lr.ph
  %.023 = phi i16 [ %13, %.lr.ph ], [ %5, %.preheader ]
  %.02022 = phi i16 [ %14, %.lr.ph ], [ 0, %.preheader ]
  %13 = shl i16 %.023, 1
  %14 = add i16 %.02022, 1
  %15 = and i16 %.023, 256
  %16 = icmp eq i16 %15, 0
  br i1 %16, label %.lr.ph, label %._crit_edge.loopexit, !llvm.loop !47

._crit_edge.loopexit:                             ; preds = %.lr.ph
  %17 = zext i16 %14 to i32
  %18 = shl i32 %17, 23
  %19 = sub i32 939524096, %18
  br label %._crit_edge

._crit_edge:                                      ; preds = %._crit_edge.loopexit, %.preheader
  %.020.lcssa = phi i32 [ 939524096, %.preheader ], [ %19, %._crit_edge.loopexit ]
  %.0.lcssa = phi i16 [ %5, %.preheader ], [ %13, %._crit_edge.loopexit ]
  %20 = shl i16 %.0.lcssa, 1
  %21 = and i16 %20, 1022
  %22 = zext nneg i16 %2 to i32
  %23 = shl nuw i32 %22, 31
  %24 = or i32 %23, %.020.lcssa
  %25 = zext nneg i16 %21 to i32
  %26 = shl nuw nsw i32 %25, 13
  %27 = or disjoint i32 %26, %24
  br label %44

28:                                               ; preds = %1
  %29 = zext nneg i16 %2 to i32
  %30 = shl nuw i32 %29, 31
  %31 = zext i16 %0 to i32
  %32 = shl nuw nsw i32 %31, 13
  %33 = or disjoint i32 %30, %32
  %34 = or i32 %33, 2139095040
  br label %44

35:                                               ; preds = %1
  %36 = zext nneg i16 %2 to i32
  %37 = shl nuw i32 %36, 31
  %narrow = add nuw nsw i16 %4, 112
  %38 = zext nneg i16 %narrow to i32
  %39 = shl nuw nsw i32 %38, 23
  %40 = or disjoint i32 %39, %37
  %41 = zext nneg i16 %5 to i32
  %42 = shl nuw nsw i32 %41, 13
  %43 = or disjoint i32 %40, %42
  br label %44

44:                                               ; preds = %28, %35, %10, %._crit_edge
  %.sroa.0.0 = phi i32 [ %12, %10 ], [ %27, %._crit_edge ], [ %34, %28 ], [ %43, %35 ]
  %45 = bitcast i32 %.sroa.0.0 to float
  ret float %45
}